target datalayout = "e-m:e-p270:32:32-p271:32:32-p272:64:64-i64:64-i128:128-f80:128-n8:16:32:64-S128"
target triple = "x86_64-pc-linux-gnu"

%"struct.llvm::Align" = type { i8 }
%class.anon = type { i8 }
%"struct.llvm::OptimizedStructLayoutField" = type <{ i64, i64, ptr, ptr, %"struct.llvm::Align", [7 x i8] }>

; Function Attrs: mustprogress nounwind uwtable
define linkonce_odr hidden noundef zeroext i1 @_ZN4llvmltENS_5AlignES0_(i8 %0, i8 %1) #0 comdat {
  %3 = alloca %"struct.llvm::Align", align 1
  %4 = alloca %"struct.llvm::Align", align 1
  %5 = getelementptr inbounds nuw %"struct.llvm::Align", ptr %3, i32 0, i32 0
  store i8 %0, ptr %5, align 1
  %6 = getelementptr inbounds nuw %"struct.llvm::Align", ptr %4, i32 0, i32 0
  store i8 %1, ptr %6, align 1
  %7 = getelementptr inbounds nuw %"struct.llvm::Align", ptr %3, i32 0, i32 0
  %8 = load i8, ptr %7, align 1
  %9 = zext i8 %8 to i32
  %10 = getelementptr inbounds nuw %"struct.llvm::Align", ptr %4, i32 0, i32 0
  %11 = load i8, ptr %10, align 1
  %12 = zext i8 %11 to i32
  %13 = icmp slt i32 %9, %12
  ret i1 %13
}

; Function Attrs: mustprogress nounwind uwtable
define linkonce_odr hidden noundef zeroext i1 @_ZN4llvmneENS_5AlignES0_(i8 %0, i8 %1) #0 comdat {
  %3 = alloca %"struct.llvm::Align", align 1
  %4 = alloca %"struct.llvm::Align", align 1
  %5 = getelementptr inbounds nuw %"struct.llvm::Align", ptr %3, i32 0, i32 0
  store i8 %0, ptr %5, align 1
  %6 = getelementptr inbounds nuw %"struct.llvm::Align", ptr %4, i32 0, i32 0
  store i8 %1, ptr %6, align 1
  %7 = getelementptr inbounds nuw %"struct.llvm::Align", ptr %3, i32 0, i32 0
  %8 = load i8, ptr %7, align 1
  %9 = zext i8 %8 to i32
  %10 = getelementptr inbounds nuw %"struct.llvm::Align", ptr %4, i32 0, i32 0
  %11 = load i8, ptr %10, align 1
  %12 = zext i8 %11 to i32
  %13 = icmp ne i32 %9, %12
  ret i1 %13
}

; Function Attrs: mustprogress nounwind uwtable
define internal noundef i32 @"_ZZN4llvm28performOptimizedStructLayoutENS_15MutableArrayRefINS_26OptimizedStructLayoutFieldEEEENK3$_0clEPKS1_S5_"(ptr noundef nonnull align 1 dereferenceable(1) %0, ptr noundef %1, ptr noundef %2) #0 align 2 {
  %4 = alloca i32, align 4
  %5 = alloca ptr, align 8
  %6 = alloca ptr, align 8
  %7 = alloca ptr, align 8
  %8 = alloca %"struct.llvm::Align", align 1
  %9 = alloca %"struct.llvm::Align", align 1
  %10 = alloca %"struct.llvm::Align", align 1
  %11 = alloca %"struct.llvm::Align", align 1
  %12 = alloca i64, align 8
  %13 = alloca i64, align 8
  store ptr %0, ptr %5, align 8
  store ptr %1, ptr %6, align 8
  store ptr %2, ptr %7, align 8
  %14 = load ptr, ptr %6, align 8
  %15 = getelementptr inbounds nuw %"struct.llvm::OptimizedStructLayoutField", ptr %14, i32 0, i32 4
  call void @llvm.memcpy.p0.p0.i64(ptr align 1 %8, ptr align 8 %15, i64 1, i1 false)
  %16 = load ptr, ptr %7, align 8
  %17 = getelementptr inbounds nuw %"struct.llvm::OptimizedStructLayoutField", ptr %16, i32 0, i32 4
  call void @llvm.memcpy.p0.p0.i64(ptr align 1 %9, ptr align 8 %17, i64 1, i1 false)
  %18 = getelementptr inbounds nuw %"struct.llvm::Align", ptr %8, i32 0, i32 0
  %19 = load i8, ptr %18, align 1
  %20 = getelementptr inbounds nuw %"struct.llvm::Align", ptr %9, i32 0, i32 0
  %21 = load i8, ptr %20, align 1
  %22 = call noundef zeroext i1 @_ZN4llvmneENS_5AlignES0_(i8 %19, i8 %21)
  br i1 %22, label %23, label %34

23:                                               ; preds = %3
  %24 = load ptr, ptr %6, align 8
  %25 = getelementptr inbounds nuw %"struct.llvm::OptimizedStructLayoutField", ptr %24, i32 0, i32 4
  call void @llvm.memcpy.p0.p0.i64(ptr align 1 %10, ptr align 8 %25, i64 1, i1 false)
  %26 = load ptr, ptr %7, align 8
  %27 = getelementptr inbounds nuw %"struct.llvm::OptimizedStructLayoutField", ptr %26, i32 0, i32 4
  call void @llvm.memcpy.p0.p0.i64(ptr align 1 %11, ptr align 8 %27, i64 1, i1 false)
  %28 = getelementptr inbounds nuw %"struct.llvm::Align", ptr %10, i32 0, i32 0
  %29 = load i8, ptr %28, align 1
  %30 = getelementptr inbounds nuw %"struct.llvm::Align", ptr %11, i32 0, i32 0
  %31 = load i8, ptr %30, align 1
  %32 = call noundef zeroext i1 @_ZN4llvmltENS_5AlignES0_(i8 %29, i8 %31)
  %33 = select i1 %32, i32 1, i32 -1
  store i32 %33, ptr %4, align 4
  br label %69

34:                                               ; preds = %3
  %35 = load ptr, ptr %6, align 8
  %36 = getelementptr inbounds nuw %"struct.llvm::OptimizedStructLayoutField", ptr %35, i32 0, i32 1
  %37 = load i64, ptr %36, align 8
  %38 = load ptr, ptr %7, align 8
  %39 = getelementptr inbounds nuw %"struct.llvm::OptimizedStructLayoutField", ptr %38, i32 0, i32 1
  %40 = load i64, ptr %39, align 8
  %41 = icmp ne i64 %37, %40
  br i1 %41, label %42, label %51

42:                                               ; preds = %34
  %43 = load ptr, ptr %6, align 8
  %44 = getelementptr inbounds nuw %"struct.llvm::OptimizedStructLayoutField", ptr %43, i32 0, i32 1
  %45 = load i64, ptr %44, align 8
  %46 = load ptr, ptr %7, align 8
  %47 = getelementptr inbounds nuw %"struct.llvm::OptimizedStructLayoutField", ptr %46, i32 0, i32 1
  %48 = load i64, ptr %47, align 8
  %49 = icmp ult i64 %45, %48
  %50 = select i1 %49, i32 1, i32 -1
  store i32 %50, ptr %4, align 4
  br label %69

51:                                               ; preds = %34
  %52 = load ptr, ptr %6, align 8
  %53 = getelementptr inbounds nuw %"struct.llvm::OptimizedStructLayoutField", ptr %52, i32 0, i32 3
  %54 = load ptr, ptr %53, align 8
  %55 = ptrtoint ptr %54 to i64
  store i64 %55, ptr %12, align 8
  %56 = load ptr, ptr %7, align 8
  %57 = getelementptr inbounds nuw %"struct.llvm::OptimizedStructLayoutField", ptr %56, i32 0, i32 3
  %58 = load ptr, ptr %57, align 8
  %59 = ptrtoint ptr %58 to i64
  store i64 %59, ptr %13, align 8
  %60 = load i64, ptr %12, align 8
  %61 = load i64, ptr %13, align 8
  %62 = icmp ne i64 %60, %61
  br i1 %62, label %63, label %68

63:                                               ; preds = %51
  %64 = load i64, ptr %12, align 8
  %65 = load i64, ptr %13, align 8
  %66 = icmp ult i64 %64, %65
  %67 = select i1 %66, i32 -1, i32 1
  store i32 %67, ptr %4, align 4
  br label %69

68:                                               ; preds = %51
  store i32 0, ptr %4, align 4
  br label %69

69:                                               ; preds = %68, %63, %42, %23
  %70 = load i32, ptr %4, align 4
  ret i32 %70
}

; Function Attrs: mustprogress nounwind uwtable
define internal noundef i32 @"_ZZN4llvm28performOptimizedStructLayoutENS_15MutableArrayRefINS_26OptimizedStructLayoutFieldEEEEN3$_08__invokeEPKS1_S5_"(ptr noundef %0, ptr noundef %1) #0 align 2 {
  %3 = alloca ptr, align 8
  %4 = alloca ptr, align 8
  %5 = alloca %class.anon, align 1
  store ptr %0, ptr %3, align 8
  store ptr %1, ptr %4, align 8
  %6 = load ptr, ptr %3, align 8
  %7 = load ptr, ptr %4, align 8
  %8 = call noundef i32 @"_ZZN4llvm28performOptimizedStructLayoutENS_15MutableArrayRefINS_26OptimizedStructLayoutFieldEEEENK3$_0clEPKS1_S5_"(ptr noundef nonnull align 1 dereferenceable(1) %5, ptr noundef %6, ptr noundef %7)
  ret i32 %8
}