; Function Attrs: mustprogress nofree norecurse nosync nounwind willreturn memory(argmem: read) uwtable
define internal noundef range(i32 -1, 2) i32 @"_ZZN4llvm28performOptimizedStructLayoutENS_15MutableArrayRefINS_26OptimizedStructLayoutFieldEEEEN3$_08__invokeEPKS1_S5_"(ptr nocapture noundef readonly %0, ptr nocapture noundef readonly %1) #3 align 2 {
  %3 = getelementptr inbounds nuw i8, ptr %0, i64 32
  %.sroa.06.0.copyload.i = load i8, ptr %3, align 8
  %4 = getelementptr inbounds nuw i8, ptr %1, i64 32
  %.sroa.05.0.copyload.i = load i8, ptr %4, align 8
  %.not1.i = icmp eq i8 %.sroa.06.0.copyload.i, %.sroa.05.0.copyload.i
  br i1 %.not1.i, label %8, label %5

5:                                                ; preds = %2
  %6 = icmp ult i8 %.sroa.06.0.copyload.i, %.sroa.05.0.copyload.i
  %7 = select i1 %6, i32 1, i32 -1
  br label %"_ZZN4llvm28performOptimizedStructLayoutENS_15MutableArrayRefINS_26OptimizedStructLayoutFieldEEEENK3$_0clEPKS1_S5_.exit"

8:                                                ; preds = %2
  %9 = getelementptr inbounds nuw i8, ptr %0, i64 8
  %10 = load i64, ptr %9, align 8
  %11 = getelementptr inbounds nuw i8, ptr %1, i64 8
  %12 = load i64, ptr %11, align 8
  %.not.i = icmp eq i64 %10, %12
  br i1 %.not.i, label %16, label %13

13:                                               ; preds = %8
  %14 = icmp ult i64 %10, %12
  %15 = select i1 %14, i32 1, i32 -1
  br label %"_ZZN4llvm28performOptimizedStructLayoutENS_15MutableArrayRefINS_26OptimizedStructLayoutFieldEEEENK3$_0clEPKS1_S5_.exit"

16:                                               ; preds = %8
  %17 = getelementptr inbounds nuw i8, ptr %0, i64 24
  %18 = load ptr, ptr %17, align 8
  %19 = getelementptr inbounds nuw i8, ptr %1, i64 24
  %20 = load ptr, ptr %19, align 8
  %.not21.i = icmp eq ptr %18, %20
  br i1 %.not21.i, label %"_ZZN4llvm28performOptimizedStructLayoutENS_15MutableArrayRefINS_26OptimizedStructLayoutFieldEEEENK3$_0clEPKS1_S5_.exit", label %21

21:                                               ; preds = %16
  %22 = icmp ult ptr %18, %20
  %23 = select i1 %22, i32 -1, i32 1
  br label %"_ZZN4llvm28performOptimizedStructLayoutENS_15MutableArrayRefINS_26OptimizedStructLayoutFieldEEEENK3$_0clEPKS1_S5_.exit"

"_ZZN4llvm28performOptimizedStructLayoutENS_15MutableArrayRefINS_26OptimizedStructLayoutFieldEEEENK3$_0clEPKS1_S5_.exit": ; preds = %5, %13, %16, %21
  %.0.i = phi i32 [ %7, %5 ], [ %15, %13 ], [ %23, %21 ], [ 0, %16 ]
  ret i32 %.0.i
}